target datalayout = "e-m:e-p270:32:32-p271:32:32-p272:64:64-i64:64-i128:128-f80:128-n8:16:32:64-S128"
target triple = "x86_64-pc-linux-gnu"

%"class.cv::Mat" = type { i32, i32, i32, i32, ptr, ptr, ptr, ptr, ptr, ptr, %"struct.cv::MatSize", %"struct.cv::MatStep" }
%"struct.cv::MatSize" = type { ptr }
%"struct.cv::MatStep" = type { ptr, [2 x i64] }
%"class.cv::_InputArray" = type { i32, ptr, %"class.cv::Size_" }
%"class.cv::Size_" = type { i32, i32 }
%"class.cv::xfeatures2d::pct_signatures::GrayscaleBitmap" = type { i32, i32, i32, %"class.std::vector", %"class.std::vector" }
%"class.std::vector" = type { %"struct.std::_Vector_base" }
%"struct.std::_Vector_base" = type { %"struct.std::_Vector_base<unsigned int, std::allocator<unsigned int>>::_Vector_impl" }
%"struct.std::_Vector_base<unsigned int, std::allocator<unsigned int>>::_Vector_impl" = type { %"struct.std::_Vector_base<unsigned int, std::allocator<unsigned int>>::_Vector_impl_data" }
%"struct.std::_Vector_base<unsigned int, std::allocator<unsigned int>>::_Vector_impl_data" = type { ptr, ptr, ptr }

; Function Attrs: mustprogress nounwind uwtable
define linkonce_odr hidden noundef nonnull align 4 dereferenceable(4) ptr @_ZNKSt6vectorIjSaIjEEixEm(ptr noundef nonnull align 8 dereferenceable(24) %0, i64 noundef %1) #1 comdat align 2 {
  %3 = alloca ptr, align 8
  %4 = alloca i64, align 8
  store ptr %0, ptr %3, align 8, !tbaa !35
  store i64 %1, ptr %4, align 8, !tbaa !50
  %5 = load ptr, ptr %3, align 8
  %6 = getelementptr inbounds nuw %"struct.std::_Vector_base", ptr %5, i32 0, i32 0
  %7 = getelementptr inbounds nuw %"struct.std::_Vector_base<unsigned int, std::allocator<unsigned int>>::_Vector_impl_data", ptr %6, i32 0, i32 0
  %8 = load ptr, ptr %7, align 8, !tbaa !52
  %9 = load i64, ptr %4, align 8, !tbaa !50
  %10 = getelementptr inbounds nuw i32, ptr %8, i64 %9
  ret ptr %10
}

; Function Attrs: inlinehint mustprogress nounwind uwtable
define linkonce_odr hidden noundef nonnull align 1 dereferenceable(1) ptr @_ZN2cv3Mat2atIhEERT_ii(ptr noundef nonnull align 8 dereferenceable(96) %0, i32 noundef %1, i32 noundef %2) #6 comdat align 2 {
  %4 = alloca ptr, align 8
  %5 = alloca i32, align 4
  %6 = alloca i32, align 4
  store ptr %0, ptr %4, align 8, !tbaa !45
  store i32 %1, ptr %5, align 4, !tbaa !10
  store i32 %2, ptr %6, align 4, !tbaa !10
  %7 = load ptr, ptr %4, align 8
  %8 = getelementptr inbounds nuw %"class.cv::Mat", ptr %7, i32 0, i32 4
  %9 = load ptr, ptr %8, align 8, !tbaa !53
  %10 = getelementptr inbounds nuw %"class.cv::Mat", ptr %7, i32 0, i32 11
  %11 = getelementptr inbounds nuw %"struct.cv::MatStep", ptr %10, i32 0, i32 0
  %12 = load ptr, ptr %11, align 8, !tbaa !54
  %13 = getelementptr inbounds i64, ptr %12, i64 0
  %14 = load i64, ptr %13, align 8, !tbaa !50
  %15 = load i32, ptr %5, align 4, !tbaa !10
  %16 = sext i32 %15 to i64
  %17 = mul i64 %14, %16
  %18 = getelementptr inbounds nuw i8, ptr %9, i64 %17
  %19 = load i32, ptr %6, align 4, !tbaa !10
  %20 = sext i32 %19 to i64
  %21 = getelementptr inbounds i8, ptr %18, i64 %20
  ret ptr %21
}

; Function Attrs: inlinehint mustprogress nounwind uwtable
define linkonce_odr hidden noundef i32 @_ZNK2cv11xfeatures2d14pct_signatures15GrayscaleBitmap8getPixelEii(ptr noundef nonnull align 8 dereferenceable(64) %0, i32 noundef %1, i32 noundef %2) #6 comdat align 2 {
  %4 = alloca ptr, align 8
  %5 = alloca i32, align 4
  %6 = alloca i32, align 4
  %7 = alloca i32, align 4
  %8 = alloca i32, align 4
  %9 = alloca i32, align 4
  %10 = alloca i32, align 4
  store ptr %0, ptr %4, align 8, !tbaa !3
  store i32 %1, ptr %5, align 4, !tbaa !10
  store i32 %2, ptr %6, align 4, !tbaa !10
  %11 = load ptr, ptr %4, align 8
  call void @llvm.lifetime.start.p0(i64 4, ptr %7) #15
  %12 = getelementptr inbounds nuw %"class.cv::xfeatures2d::pct_signatures::GrayscaleBitmap", ptr %11, i32 0, i32 2
  %13 = load i32, ptr %12, align 8, !tbaa !12
  %14 = sdiv i32 32, %13
  store i32 %14, ptr %7, align 4, !tbaa !10
  call void @llvm.lifetime.start.p0(i64 4, ptr %8) #15
  %15 = load i32, ptr %6, align 4, !tbaa !10
  %16 = getelementptr inbounds nuw %"class.cv::xfeatures2d::pct_signatures::GrayscaleBitmap", ptr %11, i32 0, i32 0
  %17 = load i32, ptr %16, align 8, !tbaa !27
  %18 = mul nsw i32 %15, %17
  %19 = load i32, ptr %5, align 4, !tbaa !10
  %20 = add nsw i32 %18, %19
  store i32 %20, ptr %8, align 4, !tbaa !10
  call void @llvm.lifetime.start.p0(i64 4, ptr %9) #15
  %21 = load i32, ptr %8, align 4, !tbaa !10
  %22 = load i32, ptr %7, align 4, !tbaa !10
  %23 = srem i32 %21, %22
  %24 = getelementptr inbounds nuw %"class.cv::xfeatures2d::pct_signatures::GrayscaleBitmap", ptr %11, i32 0, i32 2
  %25 = load i32, ptr %24, align 8, !tbaa !12
  %26 = mul nsw i32 %23, %25
  store i32 %26, ptr %9, align 4, !tbaa !10
  call void @llvm.lifetime.start.p0(i64 4, ptr %10) #15
  %27 = getelementptr inbounds nuw %"class.cv::xfeatures2d::pct_signatures::GrayscaleBitmap", ptr %11, i32 0, i32 2
  %28 = load i32, ptr %27, align 8, !tbaa !12
  %29 = shl i32 1, %28
  %30 = sub nsw i32 %29, 1
  store i32 %30, ptr %10, align 4, !tbaa !10
  %31 = getelementptr inbounds nuw %"class.cv::xfeatures2d::pct_signatures::GrayscaleBitmap", ptr %11, i32 0, i32 3
  %32 = load i32, ptr %8, align 4, !tbaa !10
  %33 = load i32, ptr %7, align 4, !tbaa !10
  %34 = sdiv i32 %32, %33
  %35 = sext i32 %34 to i64
  %36 = call noundef nonnull align 4 dereferenceable(4) ptr @_ZNKSt6vectorIjSaIjEEixEm(ptr noundef nonnull align 8 dereferenceable(24) %31, i64 noundef %35) #15
  %37 = load i32, ptr %36, align 4, !tbaa !10
  %38 = load i32, ptr %9, align 4, !tbaa !10
  %39 = lshr i32 %37, %38
  %40 = load i32, ptr %10, align 4, !tbaa !10
  %41 = and i32 %39, %40
  call void @llvm.lifetime.end.p0(i64 4, ptr %10) #15
  call void @llvm.lifetime.end.p0(i64 4, ptr %9) #15
  call void @llvm.lifetime.end.p0(i64 4, ptr %8) #15
  call void @llvm.lifetime.end.p0(i64 4, ptr %7) #15
  ret i32 %41
}

; Function Attrs: inlinehint mustprogress uwtable
define linkonce_odr hidden void @_ZNK2cv11_InputArray6getMatEi(ptr dead_on_unwind noalias writable sret(%"class.cv::Mat") align 8 %0, ptr noundef nonnull align 8 dereferenceable(24) %1, i32 noundef %2) #3 comdat align 2 {
  %4 = alloca ptr, align 8
  %5 = alloca ptr, align 8
  %6 = alloca i32, align 4
  store ptr %0, ptr %4, align 8
  store ptr %1, ptr %5, align 8, !tbaa !8
  store i32 %2, ptr %6, align 4, !tbaa !10
  %7 = load ptr, ptr %5, align 8
  %8 = call noundef i32 @_ZNK2cv11_InputArray4kindEv(ptr noundef nonnull align 8 dereferenceable(24) %7)
  %9 = icmp eq i32 %8, 65536
  br i1 %9, label %10, label %16

10:                                               ; preds = %3
  %11 = load i32, ptr %6, align 4, !tbaa !10
  %12 = icmp slt i32 %11, 0
  br i1 %12, label %13, label %16

13:                                               ; preds = %10
  %14 = getelementptr inbounds nuw %"class.cv::_InputArray", ptr %7, i32 0, i32 1
  %15 = load ptr, ptr %14, align 8, !tbaa !37
  call void @_ZN2cv3MatC1ERKS0_(ptr noundef nonnull align 8 dereferenceable(96) %0, ptr noundef nonnull align 8 dereferenceable(96) %15)
  br label %18

16:                                               ; preds = %10, %3
  %17 = load i32, ptr %6, align 4, !tbaa !10
  call void @_ZNK2cv11_InputArray7getMat_Ei(ptr dead_on_unwind writable sret(%"class.cv::Mat") align 8 %0, ptr noundef nonnull align 8 dereferenceable(24) %7, i32 noundef %17)
  br label %18

18:                                               ; preds = %16, %13
  ret void
}

; Function Attrs: mustprogress nounwind uwtable
define linkonce_odr hidden noundef i32 @_ZNK2cv11xfeatures2d14pct_signatures15GrayscaleBitmap8getWidthEv(ptr noundef nonnull align 8 dereferenceable(64) %0) #1 comdat align 2 {
  %2 = alloca ptr, align 8
  store ptr %0, ptr %2, align 8, !tbaa !3
  %3 = load ptr, ptr %2, align 8
  %4 = getelementptr inbounds nuw %"class.cv::xfeatures2d::pct_signatures::GrayscaleBitmap", ptr %3, i32 0, i32 0
  %5 = load i32, ptr %4, align 8, !tbaa !27
  ret i32 %5
}

; Function Attrs: mustprogress nounwind uwtable
define linkonce_odr hidden noundef i32 @_ZNK2cv11xfeatures2d14pct_signatures15GrayscaleBitmap9getHeightEv(ptr noundef nonnull align 8 dereferenceable(64) %0) #1 comdat align 2 {
  %2 = alloca ptr, align 8
  store ptr %0, ptr %2, align 8, !tbaa !3
  %3 = load ptr, ptr %2, align 8
  %4 = getelementptr inbounds nuw %"class.cv::xfeatures2d::pct_signatures::GrayscaleBitmap", ptr %3, i32 0, i32 1
  %5 = load i32, ptr %4, align 4, !tbaa !29
  ret i32 %5
}

; Function Attrs: mustprogress uwtable
define hidden void @_ZNK2cv11xfeatures2d14pct_signatures15GrayscaleBitmap12convertToMatERKNS_12_OutputArrayEb(ptr noundef nonnull align 8 dereferenceable(64) %0, ptr noundef nonnull align 8 dereferenceable(24) %1, i1 noundef zeroext %2) #0 align 2 personality ptr @__gxx_personality_v0 {
  %4 = alloca ptr, align 8
  %5 = alloca ptr, align 8
  %6 = alloca i8, align 1
  %7 = alloca %"class.cv::Mat", align 8
  %8 = alloca i32, align 4
  %9 = alloca ptr, align 8
  %10 = alloca i32, align 4
  %11 = alloca i32, align 4
  %12 = alloca i32, align 4
  %13 = alloca i32, align 4
  store ptr %0, ptr %4, align 8, !tbaa !3
  store ptr %1, ptr %5, align 8, !tbaa !48
  %14 = zext i1 %2 to i8
  store i8 %14, ptr %6, align 1, !tbaa !65
  %15 = load ptr, ptr %4, align 8
  %16 = load ptr, ptr %5, align 8, !tbaa !48
  %17 = call noundef i32 @_ZNK2cv11xfeatures2d14pct_signatures15GrayscaleBitmap9getHeightEv(ptr noundef nonnull align 8 dereferenceable(64) %15)
  %18 = call noundef i32 @_ZNK2cv11xfeatures2d14pct_signatures15GrayscaleBitmap8getWidthEv(ptr noundef nonnull align 8 dereferenceable(64) %15)
  call void @_ZNK2cv12_OutputArray6createEiiiibNS0_9DepthMaskE(ptr noundef nonnull align 8 dereferenceable(24) %16, i32 noundef %17, i32 noundef %18, i32 noundef 0, i32 noundef -1, i1 noundef zeroext false, i32 noundef 0)
  call void @llvm.lifetime.start.p0(i64 96, ptr %7) #15
  %19 = load ptr, ptr %5, align 8, !tbaa !48
  call void @_ZNK2cv11_InputArray6getMatEi(ptr dead_on_unwind writable sret(%"class.cv::Mat") align 8 %7, ptr noundef nonnull align 8 dereferenceable(24) %19, i32 noundef -1)
  call void @llvm.lifetime.start.p0(i64 4, ptr %8) #15
  store i32 0, ptr %8, align 4, !tbaa !10
  br label %20

20:                                               ; preds = %88, %3
  %21 = load i32, ptr %8, align 4, !tbaa !10
  %22 = invoke noundef i32 @_ZNK2cv11xfeatures2d14pct_signatures15GrayscaleBitmap9getHeightEv(ptr noundef nonnull align 8 dereferenceable(64) %15)
          to label %23 unwind label %26

23:                                               ; preds = %20
  %24 = icmp slt i32 %21, %22
  br i1 %24, label %30, label %25

25:                                               ; preds = %23
  store i32 2, ptr %11, align 4
  call void @llvm.lifetime.end.p0(i64 4, ptr %8) #15
  br label %92

26:                                               ; preds = %20
  %27 = landingpad { ptr, i32 }
          cleanup
  %28 = extractvalue { ptr, i32 } %27, 0
  store ptr %28, ptr %9, align 8
  %29 = extractvalue { ptr, i32 } %27, 1
  store i32 %29, ptr %10, align 4
  br label %91

30:                                               ; preds = %23
  call void @llvm.lifetime.start.p0(i64 4, ptr %12) #15
  store i32 0, ptr %12, align 4, !tbaa !10
  br label %31

31:                                               ; preds = %83, %30
  %32 = load i32, ptr %12, align 4, !tbaa !10
  %33 = invoke noundef i32 @_ZNK2cv11xfeatures2d14pct_signatures15GrayscaleBitmap8getWidthEv(ptr noundef nonnull align 8 dereferenceable(64) %15)
          to label %34 unwind label %37

34:                                               ; preds = %31
  %35 = icmp slt i32 %32, %33
  br i1 %35, label %41, label %36

36:                                               ; preds = %34
  store i32 5, ptr %11, align 4
  call void @llvm.lifetime.end.p0(i64 4, ptr %12) #15
  br label %87

37:                                               ; preds = %31
  %38 = landingpad { ptr, i32 }
          cleanup
  %39 = extractvalue { ptr, i32 } %38, 0
  store ptr %39, ptr %9, align 8
  %40 = extractvalue { ptr, i32 } %38, 1
  store i32 %40, ptr %10, align 4
  br label %86

41:                                               ; preds = %34
  call void @llvm.lifetime.start.p0(i64 4, ptr %13) #15
  %42 = load i32, ptr %12, align 4, !tbaa !10
  %43 = load i32, ptr %8, align 4, !tbaa !10
  %44 = invoke noundef i32 @_ZNK2cv11xfeatures2d14pct_signatures15GrayscaleBitmap8getPixelEii(ptr noundef nonnull align 8 dereferenceable(64) %15, i32 noundef %42, i32 noundef %43)
          to label %45 unwind label %58

45:                                               ; preds = %41
  store i32 %44, ptr %13, align 4, !tbaa !10
  %46 = load i8, ptr %6, align 1, !tbaa !65, !range !67, !noundef !68
  %47 = trunc i8 %46 to i1
  br i1 %47, label %48, label %62

48:                                               ; preds = %45
  %49 = getelementptr inbounds nuw %"class.cv::xfeatures2d::pct_signatures::GrayscaleBitmap", ptr %15, i32 0, i32 2
  %50 = load i32, ptr %49, align 8, !tbaa !12
  %51 = icmp slt i32 %50, 8
  br i1 %51, label %52, label %62

52:                                               ; preds = %48
  %53 = getelementptr inbounds nuw %"class.cv::xfeatures2d::pct_signatures::GrayscaleBitmap", ptr %15, i32 0, i32 2
  %54 = load i32, ptr %53, align 8, !tbaa !12
  %55 = sub nsw i32 8, %54
  %56 = load i32, ptr %13, align 4, !tbaa !10
  %57 = shl i32 %56, %55
  store i32 %57, ptr %13, align 4, !tbaa !10
  br label %76

58:                                               ; preds = %76, %41
  %59 = landingpad { ptr, i32 }
          cleanup
  %60 = extractvalue { ptr, i32 } %59, 0
  store ptr %60, ptr %9, align 8
  %61 = extractvalue { ptr, i32 } %59, 1
  store i32 %61, ptr %10, align 4
  call void @llvm.lifetime.end.p0(i64 4, ptr %13) #15
  br label %86

62:                                               ; preds = %48, %45
  %63 = load i8, ptr %6, align 1, !tbaa !65, !range !67, !noundef !68
  %64 = trunc i8 %63 to i1
  br i1 %64, label %65, label %75

65:                                               ; preds = %62
  %66 = getelementptr inbounds nuw %"class.cv::xfeatures2d::pct_signatures::GrayscaleBitmap", ptr %15, i32 0, i32 2
  %67 = load i32, ptr %66, align 8, !tbaa !12
  %68 = icmp sgt i32 %67, 8
  br i1 %68, label %69, label %75

69:                                               ; preds = %65
  %70 = getelementptr inbounds nuw %"class.cv::xfeatures2d::pct_signatures::GrayscaleBitmap", ptr %15, i32 0, i32 2
  %71 = load i32, ptr %70, align 8, !tbaa !12
  %72 = sub nsw i32 %71, 8
  %73 = load i32, ptr %13, align 4, !tbaa !10
  %74 = lshr i32 %73, %72
  store i32 %74, ptr %13, align 4, !tbaa !10
  br label %75

75:                                               ; preds = %69, %65, %62
  br label %76

76:                                               ; preds = %75, %52
  %77 = load i32, ptr %13, align 4, !tbaa !10
  %78 = trunc i32 %77 to i8
  %79 = load i32, ptr %8, align 4, !tbaa !10
  %80 = load i32, ptr %12, align 4, !tbaa !10
  %81 = invoke noundef nonnull align 1 dereferenceable(1) ptr @_ZN2cv3Mat2atIhEERT_ii(ptr noundef nonnull align 8 dereferenceable(96) %7, i32 noundef %79, i32 noundef %80)
          to label %82 unwind label %58

82:                                               ; preds = %76
  store i8 %78, ptr %81, align 1, !tbaa !69
  call void @llvm.lifetime.end.p0(i64 4, ptr %13) #15
  br label %83

83:                                               ; preds = %82
  %84 = load i32, ptr %12, align 4, !tbaa !10
  %85 = add nsw i32 %84, 1
  store i32 %85, ptr %12, align 4, !tbaa !10
  br label %31, !llvm.loop !70

86:                                               ; preds = %58, %37
  call void @llvm.lifetime.end.p0(i64 4, ptr %12) #15
  br label %91

87:                                               ; preds = %36
  br label %88

88:                                               ; preds = %87
  %89 = load i32, ptr %8, align 4, !tbaa !10
  %90 = add nsw i32 %89, 1
  store i32 %90, ptr %8, align 4, !tbaa !10
  br label %20, !llvm.loop !71

91:                                               ; preds = %86, %26
  call void @llvm.lifetime.end.p0(i64 4, ptr %8) #15
  call void @_ZN2cv3MatD1Ev(ptr noundef nonnull align 8 dereferenceable(96) %7) #15
  call void @llvm.lifetime.end.p0(i64 96, ptr %7) #15
  br label %93

92:                                               ; preds = %25
  call void @_ZN2cv3MatD1Ev(ptr noundef nonnull align 8 dereferenceable(96) %7) #15
  call void @llvm.lifetime.end.p0(i64 96, ptr %7) #15
  ret void

93:                                               ; preds = %91
  %94 = load ptr, ptr %9, align 8
  %95 = load i32, ptr %10, align 4
  %96 = insertvalue { ptr, i32 } poison, ptr %94, 0
  %97 = insertvalue { ptr, i32 } %96, i32 %95, 1
  resume { ptr, i32 } %97
}