; Function Attrs: mustprogress uwtable
define hidden void @_ZNK2cv11xfeatures2d14pct_signatures15GrayscaleBitmap12convertToMatERKNS_12_OutputArrayEb(ptr noundef nonnull readonly align 8 captures(none) dereferenceable(64) %0, ptr noundef nonnull align 8 dereferenceable(24) %1, i1 noundef zeroext %2) local_unnamed_addr #0 align 2 personality ptr @__gxx_personality_v0 {
  %4 = alloca %"class.cv::Mat", align 8
  %5 = getelementptr inbounds nuw i8, ptr %0, i64 4
  %6 = load i32, ptr %5, align 4, !tbaa !39
  %7 = load i32, ptr %0, align 8, !tbaa !37
  tail call void @_ZNK2cv12_OutputArray6createEiiiibNS0_9DepthMaskE(ptr noundef nonnull align 8 dereferenceable(24) %1, i32 noundef %6, i32 noundef %7, i32 noundef 0, i32 noundef -1, i1 noundef zeroext false, i32 noundef 0)
  call void @llvm.lifetime.start.p0(i64 96, ptr nonnull %4) #14
  %8 = tail call noundef i32 @_ZNK2cv11_InputArray4kindEv(ptr noundef nonnull align 8 dereferenceable(24) %1), !noalias !56
  %9 = icmp eq i32 %8, 65536
  br i1 %9, label %10, label %13

10:                                               ; preds = %3
  %11 = getelementptr inbounds nuw i8, ptr %1, i64 8
  %12 = load ptr, ptr %11, align 8, !tbaa !14, !noalias !56
  call void @_ZN2cv3MatC1ERKS0_(ptr noundef nonnull align 8 dereferenceable(96) %4, ptr noundef nonnull align 8 dereferenceable(96) %12)
  br label %_ZNK2cv11_InputArray6getMatEi.exit

13:                                               ; preds = %3
  call void @_ZNK2cv11_InputArray7getMat_Ei(ptr dead_on_unwind nonnull writable sret(%"class.cv::Mat") align 8 %4, ptr noundef nonnull align 8 dereferenceable(24) %1, i32 noundef -1)
  br label %_ZNK2cv11_InputArray6getMatEi.exit

_ZNK2cv11_InputArray6getMatEi.exit:               ; preds = %10, %13
  %14 = load i32, ptr %5, align 4, !tbaa !39
  %15 = icmp sgt i32 %14, 0
  br i1 %15, label %.preheader.lr.ph, label %._crit_edge22

.preheader.lr.ph:                                 ; preds = %_ZNK2cv11_InputArray6getMatEi.exit
  %16 = getelementptr inbounds nuw i8, ptr %0, i64 8
  %17 = getelementptr inbounds nuw i8, ptr %0, i64 16
  %18 = getelementptr inbounds nuw i8, ptr %4, i64 16
  %19 = getelementptr inbounds nuw i8, ptr %4, i64 72
  %20 = load i32, ptr %0, align 8, !tbaa !37
  %21 = icmp sgt i32 %20, 0
  br i1 %21, label %.preheader, label %._crit_edge22

.preheader:                                       ; preds = %.preheader.lr.ph, %._crit_edge
  %22 = phi i32 [ %59, %._crit_edge ], [ %20, %.preheader.lr.ph ]
  %indvars.iv29 = phi i64 [ %indvars.iv.next30, %._crit_edge ], [ 0, %.preheader.lr.ph ]
  %23 = icmp sgt i32 %22, 0
  br i1 %23, label %.lr.ph, label %._crit_edge

.lr.ph:                                           ; preds = %.preheader
  %24 = trunc nuw nsw i64 %indvars.iv29 to i32
  br i1 %2, label %.lr.ph.split.us, label %.critedge

.lr.ph.split.us:                                  ; preds = %.lr.ph, %.critedge.us
  %indvars.iv26 = phi i64 [ %indvars.iv.next27, %.critedge.us ], [ 0, %.lr.ph ]
  %25 = phi i32 [ %56, %.critedge.us ], [ %22, %.lr.ph ]
  %26 = load i32, ptr %16, align 8, !tbaa !3
  %27 = sdiv i32 32, %26
  %28 = mul nsw i32 %25, %24
  %29 = trunc nuw nsw i64 %indvars.iv26 to i32
  %30 = add nsw i32 %28, %29
  %31 = srem i32 %30, %27
  %32 = mul nsw i32 %31, %26
  %notmask.i.us = shl nsw i32 -1, %26
  %33 = xor i32 %notmask.i.us, -1
  %34 = sdiv i32 %30, %27
  %35 = sext i32 %34 to i64
  %36 = load ptr, ptr %17, align 8, !tbaa !41
  %37 = getelementptr inbounds nuw i32, ptr %36, i64 %35
  %38 = load i32, ptr %37, align 4, !tbaa !48
  %39 = lshr i32 %38, %32
  %40 = and i32 %39, %33
  %41 = icmp slt i32 %26, 8
  br i1 %41, label %46, label %42

42:                                               ; preds = %.lr.ph.split.us
  %.not.us = icmp eq i32 %26, 8
  br i1 %.not.us, label %.critedge.us, label %43

43:                                               ; preds = %42
  %44 = add nsw i32 %26, -8
  %45 = lshr i32 %40, %44
  br label %.critedge.us

46:                                               ; preds = %.lr.ph.split.us
  %47 = sub nsw i32 8, %26
  %48 = shl i32 %40, %47
  br label %.critedge.us

.critedge.us:                                     ; preds = %46, %43, %42
  %.0.us = phi i32 [ %48, %46 ], [ %45, %43 ], [ %40, %42 ]
  %49 = trunc i32 %.0.us to i8
  %50 = load ptr, ptr %18, align 8, !tbaa !59
  %51 = load ptr, ptr %19, align 8, !tbaa !60
  %52 = load i64, ptr %51, align 8, !tbaa !42
  %53 = mul i64 %52, %indvars.iv29
  %54 = getelementptr inbounds nuw i8, ptr %50, i64 %53
  %55 = getelementptr inbounds nuw i8, ptr %54, i64 %indvars.iv26
  store i8 %49, ptr %55, align 1, !tbaa !61
  %indvars.iv.next27 = add nuw nsw i64 %indvars.iv26, 1
  %56 = load i32, ptr %0, align 8, !tbaa !37
  %57 = sext i32 %56 to i64
  %58 = icmp slt i64 %indvars.iv.next27, %57
  br i1 %58, label %.lr.ph.split.us, label %._crit_edge, !llvm.loop !62

._crit_edge22:                                    ; preds = %._crit_edge, %.preheader.lr.ph, %_ZNK2cv11_InputArray6getMatEi.exit
  call void @_ZN2cv3MatD1Ev(ptr noundef nonnull align 8 dereferenceable(96) %4) #14
  call void @llvm.lifetime.end.p0(i64 96, ptr nonnull %4) #14
  ret void

._crit_edge:                                      ; preds = %.critedge, %.critedge.us, %.preheader
  %59 = phi i32 [ %22, %.preheader ], [ %56, %.critedge.us ], [ %86, %.critedge ]
  %indvars.iv.next30 = add nuw nsw i64 %indvars.iv29, 1
  %60 = load i32, ptr %5, align 4, !tbaa !39
  %61 = sext i32 %60 to i64
  %62 = icmp slt i64 %indvars.iv.next30, %61
  br i1 %62, label %.preheader, label %._crit_edge22, !llvm.loop !63

.critedge:                                        ; preds = %.lr.ph, %.critedge
  %indvars.iv = phi i64 [ %indvars.iv.next, %.critedge ], [ 0, %.lr.ph ]
  %63 = phi i32 [ %86, %.critedge ], [ %22, %.lr.ph ]
  %64 = load i32, ptr %16, align 8, !tbaa !3
  %65 = sdiv i32 32, %64
  %66 = mul nsw i32 %63, %24
  %67 = trunc nuw nsw i64 %indvars.iv to i32
  %68 = add nsw i32 %66, %67
  %69 = srem i32 %68, %65
  %70 = mul nsw i32 %69, %64
  %notmask.i = shl nsw i32 -1, %64
  %71 = xor i32 %notmask.i, -1
  %72 = sdiv i32 %68, %65
  %73 = sext i32 %72 to i64
  %74 = load ptr, ptr %17, align 8, !tbaa !41
  %75 = getelementptr inbounds nuw i32, ptr %74, i64 %73
  %76 = load i32, ptr %75, align 4, !tbaa !48
  %77 = lshr i32 %76, %70
  %78 = and i32 %77, %71
  %79 = trunc i32 %78 to i8
  %80 = load ptr, ptr %18, align 8, !tbaa !59
  %81 = load ptr, ptr %19, align 8, !tbaa !60
  %82 = load i64, ptr %81, align 8, !tbaa !42
  %83 = mul i64 %82, %indvars.iv29
  %84 = getelementptr inbounds nuw i8, ptr %80, i64 %83
  %85 = getelementptr inbounds nuw i8, ptr %84, i64 %indvars.iv
  store i8 %79, ptr %85, align 1, !tbaa !61
  %indvars.iv.next = add nuw nsw i64 %indvars.iv, 1
  %86 = load i32, ptr %0, align 8, !tbaa !37
  %87 = sext i32 %86 to i64
  %88 = icmp slt i64 %indvars.iv.next, %87
  br i1 %88, label %.critedge, label %._crit_edge, !llvm.loop !62
}